; LegoOmni.def : Declares the module parameters for the OMNI.DLL.

DESCRIPTION  'Lego OMNI Windows Dynamic Link Library'

EXPORTS

; EXPORTs really required only.

_DllMain@12
??0MxOmniCreateFlags@@QAE@XZ
?DestroyInstance@MxOmni@@SAXXZ
?GetInstance@LegoOmni@@SAPAV1@XZ
?CreateInstance@LegoOmni@@SAXXZ
?Open@MxStreamer@@QAEPAVMxStreamController@@PBDG@Z
?GetVariable@MxVariableTable@@QAEPBDPBD@Z
?SetVariable@MxVariableTable@@QAEXPBD0@Z
??0MxBitmap@@QAE@XZ
??1MxBitmap@@UAE@XZ
?Read@MxBitmap@@UAEJPBD@Z
?CreatePalette@MxBitmap@@UAEPAVMxPalette@@XZ
?RealizePalette@MxVideoManager@@QAEJPAVMxPalette@@@Z
?InvalidateRect@MxVideoManager@@QAEXAAVMxRect32@@@Z
?GetInstance@MxScheduler@@SAPAV1@XZ
?StartMultiTasking@MxScheduler@@QAEXK@Z
??0LegoEntity@@QAE@XZ
??1LegoEntity@@UAE@XZ
??0LegoWorld@@QAE@XZ
??1LegoWorld@@UAE@XZ
?QueueEvent@LegoInputManager@@QAEXFEJJE@Z
?GetTime@MxTimer@@QAEJXZ
?Detach@MxPalette@@QAEXXZ
??1MxPresenter@@UAE@XZ
??0MxPresenter@@QAE@XZ
??0MxOmniCreateParam@@QAE@PBDPAUHWND__@@AAVMxVideoParam@@VMxOmniCreateFlags@@@Z
?Find@MxStreamControllerList@@QAEPAVMxStreamController@@PBD@Z
?GetWorld@LegoOmni@@QAEPAVLegoWorld@@PBD@Z
?SetOmniUserMessage@@YAXP6AXPBDH@Z@Z
?UnRegister@LegoInputManager@@QAEXPAVMxCore@@@Z
?Register@LegoInputManager@@QAEXPAVMxCore@@@Z
??0MxVideoParam@@QAE@XZ
??0MxVideoParam@@QAE@AAVMxRect32@@PAVMxPalette@@EEKE@Z
??0LegoGameState@@QAE@XZ
?SetDefaults@LegoNavController@@SAXHNNNNNNNNNE@Z
?GetDefaults@LegoNavController@@SAXPAHPAN11111111PAE@Z
??0MxDSAction@@QAE@XZ
??1MxDSAction@@UAE@XZ
?SetObjectName@MxDSObject@@QAEXPBD@Z
?SetSourceName@MxDSObject@@QAEXPBD@Z
